target datalayout = "e-m:e-p270:32:32-p271:32:32-p272:64:64-i64:64-i128:128-f80:128-n8:16:32:64-S128"
target triple = "x86_64-pc-linux-gnu"

%struct.job_info_request_msg = type { i64, i16, ptr }

@.str.2 = private unnamed_addr constant [22 x i8] c"slurm_protocol_pack.c\00", align 1
@__func__._unpack_job_info_request_msg = private unnamed_addr constant [29 x i8] c"_unpack_job_info_request_msg\00", align 1

; Function Attrs: nounwind uwtable
define internal i32 @_unpack_job_info_request_msg(ptr noundef %0, ptr noundef %1, i16 noundef zeroext %2) #0 {
  %4 = alloca i32, align 4
  %5 = alloca ptr, align 8
  %6 = alloca ptr, align 8
  %7 = alloca i16, align 2
  %8 = alloca i32, align 4
  %9 = alloca i32, align 4
  %10 = alloca ptr, align 8
  %11 = alloca ptr, align 8
  %12 = alloca i32, align 4
  store ptr %0, ptr %5, align 8
  store ptr %1, ptr %6, align 8
  store i16 %2, ptr %7, align 2
  call void @llvm.lifetime.start.p0(i64 4, ptr %8) #6
  call void @llvm.lifetime.start.p0(i64 4, ptr %9) #6
  call void @llvm.lifetime.start.p0(i64 8, ptr %10) #6
  store ptr null, ptr %10, align 8
  call void @llvm.lifetime.start.p0(i64 8, ptr %11) #6
  %13 = call ptr @slurm_xcalloc(i64 noundef 1, i64 noundef 24, i1 noundef zeroext true, i1 noundef zeroext false, ptr noundef @.str.2, i32 noundef 9123, ptr noundef @__func__._unpack_job_info_request_msg)
  store ptr %13, ptr %11, align 8
  %14 = load ptr, ptr %11, align 8
  %15 = load ptr, ptr %5, align 8
  store ptr %14, ptr %15, align 8
  %16 = load i16, ptr %7, align 2
  %17 = zext i16 %16 to i32
  %18 = icmp sge i32 %17, 10240
  br i1 %18, label %19, label %82

19:                                               ; preds = %3
  br label %20

20:                                               ; preds = %19
  %21 = load ptr, ptr %11, align 8
  %22 = getelementptr inbounds nuw %struct.job_info_request_msg, ptr %21, i32 0, i32 0
  %23 = load ptr, ptr %6, align 8
  %24 = call i32 @unpack_time(ptr noundef %22, ptr noundef %23)
  %25 = icmp ne i32 %24, 0
  br i1 %25, label %26, label %27

26:                                               ; preds = %20
  br label %83

27:                                               ; preds = %20
  br label %28

28:                                               ; preds = %27
  br label %29

29:                                               ; preds = %28
  br label %30

30:                                               ; preds = %29
  %31 = load ptr, ptr %11, align 8
  %32 = getelementptr inbounds nuw %struct.job_info_request_msg, ptr %31, i32 0, i32 1
  %33 = load ptr, ptr %6, align 8
  %34 = call i32 @unpack16(ptr noundef %32, ptr noundef %33)
  %35 = icmp ne i32 %34, 0
  br i1 %35, label %36, label %37

36:                                               ; preds = %30
  br label %83

37:                                               ; preds = %30
  br label %38

38:                                               ; preds = %37
  br label %39

39:                                               ; preds = %38
  br label %40

40:                                               ; preds = %39
  %41 = load ptr, ptr %6, align 8
  %42 = call i32 @unpack32(ptr noundef %9, ptr noundef %41)
  %43 = icmp ne i32 %42, 0
  br i1 %43, label %44, label %45

44:                                               ; preds = %40
  br label %83

45:                                               ; preds = %40
  br label %46

46:                                               ; preds = %45
  br label %47

47:                                               ; preds = %46
  %48 = load i32, ptr %9, align 4
  %49 = icmp ugt i32 %48, -2
  br i1 %49, label %50, label %51

50:                                               ; preds = %47
  br label %83

51:                                               ; preds = %47
  %52 = load i32, ptr %9, align 4
  %53 = icmp ne i32 %52, -2
  br i1 %53, label %54, label %81

54:                                               ; preds = %51
  %55 = call ptr @list_create(ptr noundef @xfree_ptr)
  %56 = load ptr, ptr %11, align 8
  %57 = getelementptr inbounds nuw %struct.job_info_request_msg, ptr %56, i32 0, i32 2
  store ptr %55, ptr %57, align 8
  store i32 0, ptr %8, align 4
  br label %58

58:                                               ; preds = %77, %54
  %59 = load i32, ptr %8, align 4
  %60 = load i32, ptr %9, align 4
  %61 = icmp ult i32 %59, %60
  br i1 %61, label %62, label %80

62:                                               ; preds = %58
  %63 = call ptr @slurm_xcalloc(i64 noundef 1, i64 noundef 4, i1 noundef zeroext true, i1 noundef zeroext false, ptr noundef @.str.2, i32 noundef 9136, ptr noundef @__func__._unpack_job_info_request_msg)
  store ptr %63, ptr %10, align 8
  br label %64

64:                                               ; preds = %62
  %65 = load ptr, ptr %10, align 8
  %66 = load ptr, ptr %6, align 8
  %67 = call i32 @unpack32(ptr noundef %65, ptr noundef %66)
  %68 = icmp ne i32 %67, 0
  br i1 %68, label %69, label %70

69:                                               ; preds = %64
  br label %83

70:                                               ; preds = %64
  br label %71

71:                                               ; preds = %70
  br label %72

72:                                               ; preds = %71
  %73 = load ptr, ptr %11, align 8
  %74 = getelementptr inbounds nuw %struct.job_info_request_msg, ptr %73, i32 0, i32 2
  %75 = load ptr, ptr %74, align 8
  %76 = load ptr, ptr %10, align 8
  call void @list_append(ptr noundef %75, ptr noundef %76)
  store ptr null, ptr %10, align 8
  br label %77

77:                                               ; preds = %72
  %78 = load i32, ptr %8, align 4
  %79 = add nsw i32 %78, 1
  store i32 %79, ptr %8, align 4
  br label %58, !llvm.loop !93

80:                                               ; preds = %58
  br label %81

81:                                               ; preds = %80, %51
  br label %82

82:                                               ; preds = %81, %3
  store i32 0, ptr %4, align 4
  store i32 1, ptr %12, align 4
  br label %86

83:                                               ; preds = %69, %50, %44, %36, %26
  call void @slurm_xfree(ptr noundef %10)
  %84 = load ptr, ptr %11, align 8
  call void @slurm_free_job_info_request_msg(ptr noundef %84)
  %85 = load ptr, ptr %5, align 8
  store ptr null, ptr %85, align 8
  store i32 -1, ptr %4, align 4
  store i32 1, ptr %12, align 4
  br label %86

86:                                               ; preds = %83, %82
  call void @llvm.lifetime.end.p0(i64 8, ptr %11) #6
  call void @llvm.lifetime.end.p0(i64 8, ptr %10) #6
  call void @llvm.lifetime.end.p0(i64 4, ptr %9) #6
  call void @llvm.lifetime.end.p0(i64 4, ptr %8) #6
  %87 = load i32, ptr %4, align 4
  ret i32 %87
}