; Function Attrs: nounwind uwtable
define internal fastcc range(i32 -1, 1) i32 @_unpack_job_info_request_msg(ptr noundef writeonly captures(none) initializes((0, 8)) %0, ptr noundef %1, i16 noundef zeroext %2) unnamed_addr #0 {
  %4 = alloca i32, align 4
  %5 = alloca ptr, align 8
  call void @llvm.lifetime.start.p0(i64 4, ptr nonnull %4) #7
  call void @llvm.lifetime.start.p0(i64 8, ptr nonnull %5) #7
  store ptr null, ptr %5, align 8
  %6 = tail call ptr @slurm_xcalloc(i64 noundef 1, i64 noundef 24, i1 noundef zeroext true, i1 noundef zeroext false, ptr noundef nonnull @.str.2, i32 noundef 9123, ptr noundef nonnull @__func__._unpack_job_info_request_msg) #7
  store ptr %6, ptr %0, align 8
  %7 = icmp ugt i16 %2, 10239
  br i1 %7, label %8, label %.loopexit

8:                                                ; preds = %3
  %9 = tail call i32 @unpack_time(ptr noundef %6, ptr noundef %1) #7
  %.not = icmp eq i32 %9, 0
  br i1 %.not, label %10, label %.loopexit21

10:                                               ; preds = %8
  %11 = getelementptr inbounds nuw i8, ptr %6, i64 8
  %12 = tail call i32 @unpack16(ptr noundef nonnull %11, ptr noundef %1) #7
  %.not18 = icmp eq i32 %12, 0
  br i1 %.not18, label %13, label %.loopexit21

13:                                               ; preds = %10
  %14 = call i32 @unpack32(ptr noundef nonnull %4, ptr noundef %1) #7
  %15 = icmp ne i32 %14, 0
  %16 = load i32, ptr %4, align 4
  %17 = icmp eq i32 %16, -1
  %or.cond = select i1 %15, i1 true, i1 %17
  br i1 %or.cond, label %.loopexit21, label %18

18:                                               ; preds = %13
  %.not19 = icmp eq i32 %16, -2
  br i1 %.not19, label %.loopexit, label %19

19:                                               ; preds = %18
  %20 = call ptr @list_create(ptr noundef nonnull @xfree_ptr) #7
  %21 = getelementptr inbounds nuw i8, ptr %6, i64 16
  store ptr %20, ptr %21, align 8
  %22 = load i32, ptr %4, align 4
  %.not23 = icmp eq i32 %22, 0
  br i1 %.not23, label %.loopexit, label %.lr.ph

.lr.ph:                                           ; preds = %19, %25
  %.01622 = phi i32 [ %27, %25 ], [ 0, %19 ]
  %23 = call ptr @slurm_xcalloc(i64 noundef 1, i64 noundef 4, i1 noundef zeroext true, i1 noundef zeroext false, ptr noundef nonnull @.str.2, i32 noundef 9136, ptr noundef nonnull @__func__._unpack_job_info_request_msg) #7
  store ptr %23, ptr %5, align 8
  %24 = call i32 @unpack32(ptr noundef %23, ptr noundef %1) #7
  %.not20 = icmp eq i32 %24, 0
  br i1 %.not20, label %25, label %.loopexit21

25:                                               ; preds = %.lr.ph
  %26 = load ptr, ptr %21, align 8
  call void @list_append(ptr noundef %26, ptr noundef %23) #7
  store ptr null, ptr %5, align 8
  %27 = add nuw nsw i32 %.01622, 1
  %28 = load i32, ptr %4, align 4
  %29 = icmp ult i32 %27, %28
  br i1 %29, label %.lr.ph, label %.loopexit, !llvm.loop !95

.loopexit21:                                      ; preds = %.lr.ph, %13, %10, %8
  call void @slurm_xfree(ptr noundef nonnull %5) #7
  call void @slurm_free_job_info_request_msg(ptr noundef %6) #7
  store ptr null, ptr %0, align 8
  br label %.loopexit

.loopexit:                                        ; preds = %25, %19, %3, %18, %.loopexit21
  %.0 = phi i32 [ -1, %.loopexit21 ], [ 0, %18 ], [ 0, %3 ], [ 0, %19 ], [ 0, %25 ]
  call void @llvm.lifetime.end.p0(i64 8, ptr nonnull %5) #7
  call void @llvm.lifetime.end.p0(i64 4, ptr nonnull %4) #7
  ret i32 %.0
}